target datalayout = "e-m:e-p270:32:32-p271:32:32-p272:64:64-i64:64-i128:128-f80:128-n8:16:32:64-S128"
target triple = "x86_64-pc-linux-gnu"

%struct.deal = type { i32, i32, [3 x i32], [3 x i32], [4 x [4 x i32]] }

; Function Attrs: mustprogress uwtable
define noundef i32 @_Z16BoardRangeChecksRK4dealiii(ptr noundef nonnull align 4 dereferenceable(96) %0, i32 noundef %1, i32 noundef %2, i32 noundef %3) #4 {
  %5 = alloca i32, align 4
  %6 = alloca ptr, align 8
  %7 = alloca i32, align 4
  %8 = alloca i32, align 4
  %9 = alloca i32, align 4
  %10 = alloca [3 x i32], align 4
  %11 = alloca i32, align 4
  %12 = alloca i32, align 4
  %13 = alloca i32, align 4
  %14 = alloca i32, align 4
  %15 = alloca i32, align 4
  store ptr %0, ptr %6, align 8
  store i32 %1, ptr %7, align 4
  store i32 %2, ptr %8, align 4
  store i32 %3, ptr %9, align 4
  %16 = load i32, ptr %7, align 4
  %17 = icmp slt i32 %16, -1
  br i1 %17, label %18, label %24

18:                                               ; preds = %4
  %19 = load ptr, ptr %6, align 8
  %20 = load i32, ptr %7, align 4
  %21 = load i32, ptr %8, align 4
  %22 = load i32, ptr %9, align 4
  %23 = call noundef i32 @_Z9DumpInputiRK4dealiii(i32 noundef -5, ptr noundef nonnull align 4 dereferenceable(96) %19, i32 noundef %20, i32 noundef %21, i32 noundef %22)
  store i32 -5, ptr %5, align 4
  br label %223

24:                                               ; preds = %4
  %25 = load i32, ptr %7, align 4
  %26 = icmp sgt i32 %25, 13
  br i1 %26, label %27, label %33

27:                                               ; preds = %24
  %28 = load ptr, ptr %6, align 8
  %29 = load i32, ptr %7, align 4
  %30 = load i32, ptr %8, align 4
  %31 = load i32, ptr %9, align 4
  %32 = call noundef i32 @_Z9DumpInputiRK4dealiii(i32 noundef -7, ptr noundef nonnull align 4 dereferenceable(96) %28, i32 noundef %29, i32 noundef %30, i32 noundef %31)
  store i32 -7, ptr %5, align 4
  br label %223

33:                                               ; preds = %24
  %34 = load i32, ptr %8, align 4
  %35 = icmp slt i32 %34, 1
  br i1 %35, label %36, label %42

36:                                               ; preds = %33
  %37 = load ptr, ptr %6, align 8
  %38 = load i32, ptr %7, align 4
  %39 = load i32, ptr %8, align 4
  %40 = load i32, ptr %9, align 4
  %41 = call noundef i32 @_Z9DumpInputiRK4dealiii(i32 noundef -8, ptr noundef nonnull align 4 dereferenceable(96) %37, i32 noundef %38, i32 noundef %39, i32 noundef %40)
  store i32 -8, ptr %5, align 4
  br label %223

42:                                               ; preds = %33
  %43 = load i32, ptr %8, align 4
  %44 = icmp sgt i32 %43, 3
  br i1 %44, label %45, label %51

45:                                               ; preds = %42
  %46 = load ptr, ptr %6, align 8
  %47 = load i32, ptr %7, align 4
  %48 = load i32, ptr %8, align 4
  %49 = load i32, ptr %9, align 4
  %50 = call noundef i32 @_Z9DumpInputiRK4dealiii(i32 noundef -9, ptr noundef nonnull align 4 dereferenceable(96) %46, i32 noundef %47, i32 noundef %48, i32 noundef %49)
  store i32 -9, ptr %5, align 4
  br label %223

51:                                               ; preds = %42
  %52 = load i32, ptr %9, align 4
  %53 = icmp slt i32 %52, 0
  br i1 %53, label %54, label %60

54:                                               ; preds = %51
  %55 = load ptr, ptr %6, align 8
  %56 = load i32, ptr %7, align 4
  %57 = load i32, ptr %8, align 4
  %58 = load i32, ptr %9, align 4
  %59 = call noundef i32 @_Z9DumpInputiRK4dealiii(i32 noundef -16, ptr noundef nonnull align 4 dereferenceable(96) %55, i32 noundef %56, i32 noundef %57, i32 noundef %58)
  store i32 -16, ptr %5, align 4
  br label %223

60:                                               ; preds = %51
  %61 = load i32, ptr %9, align 4
  %62 = icmp sgt i32 %61, 2
  br i1 %62, label %63, label %69

63:                                               ; preds = %60
  %64 = load ptr, ptr %6, align 8
  %65 = load i32, ptr %7, align 4
  %66 = load i32, ptr %8, align 4
  %67 = load i32, ptr %9, align 4
  %68 = call noundef i32 @_Z9DumpInputiRK4dealiii(i32 noundef -17, ptr noundef nonnull align 4 dereferenceable(96) %64, i32 noundef %65, i32 noundef %66, i32 noundef %67)
  store i32 -17, ptr %5, align 4
  br label %223

69:                                               ; preds = %60
  %70 = load ptr, ptr %6, align 8
  %71 = getelementptr inbounds nuw %struct.deal, ptr %70, i32 0, i32 0
  %72 = load i32, ptr %71, align 4
  %73 = icmp slt i32 %72, 0
  br i1 %73, label %79, label %74

74:                                               ; preds = %69
  %75 = load ptr, ptr %6, align 8
  %76 = getelementptr inbounds nuw %struct.deal, ptr %75, i32 0, i32 0
  %77 = load i32, ptr %76, align 4
  %78 = icmp sgt i32 %77, 4
  br i1 %78, label %79, label %85

79:                                               ; preds = %74, %69
  %80 = load ptr, ptr %6, align 8
  %81 = load i32, ptr %7, align 4
  %82 = load i32, ptr %8, align 4
  %83 = load i32, ptr %9, align 4
  %84 = call noundef i32 @_Z9DumpInputiRK4dealiii(i32 noundef -18, ptr noundef nonnull align 4 dereferenceable(96) %80, i32 noundef %81, i32 noundef %82, i32 noundef %83)
  store i32 -18, ptr %5, align 4
  br label %223

85:                                               ; preds = %74
  %86 = load ptr, ptr %6, align 8
  %87 = getelementptr inbounds nuw %struct.deal, ptr %86, i32 0, i32 1
  %88 = load i32, ptr %87, align 4
  %89 = icmp slt i32 %88, 0
  br i1 %89, label %95, label %90

90:                                               ; preds = %85
  %91 = load ptr, ptr %6, align 8
  %92 = getelementptr inbounds nuw %struct.deal, ptr %91, i32 0, i32 1
  %93 = load i32, ptr %92, align 4
  %94 = icmp sgt i32 %93, 3
  br i1 %94, label %95, label %101

95:                                               ; preds = %90, %85
  %96 = load ptr, ptr %6, align 8
  %97 = load i32, ptr %7, align 4
  %98 = load i32, ptr %8, align 4
  %99 = load i32, ptr %9, align 4
  %100 = call noundef i32 @_Z9DumpInputiRK4dealiii(i32 noundef -19, ptr noundef nonnull align 4 dereferenceable(96) %96, i32 noundef %97, i32 noundef %98, i32 noundef %99)
  store i32 -19, ptr %5, align 4
  br label %223

101:                                              ; preds = %90
  call void @llvm.memset.p0.i64(ptr align 4 %10, i8 0, i64 12, i1 false)
  store i32 0, ptr %11, align 4
  br label %102

102:                                              ; preds = %153, %101
  %103 = load i32, ptr %11, align 4
  %104 = icmp slt i32 %103, 3
  br i1 %104, label %105, label %156

105:                                              ; preds = %102
  %106 = load ptr, ptr %6, align 8
  %107 = getelementptr inbounds nuw %struct.deal, ptr %106, i32 0, i32 3
  %108 = load i32, ptr %11, align 4
  %109 = sext i32 %108 to i64
  %110 = getelementptr inbounds [3 x i32], ptr %107, i64 0, i64 %109
  %111 = load i32, ptr %110, align 4
  store i32 %111, ptr %12, align 4
  %112 = load i32, ptr %12, align 4
  %113 = icmp eq i32 %112, 0
  br i1 %113, label %114, label %115

114:                                              ; preds = %105
  br label %153

115:                                              ; preds = %105
  %116 = load i32, ptr %11, align 4
  %117 = sext i32 %116 to i64
  %118 = getelementptr inbounds [3 x i32], ptr %10, i64 0, i64 %117
  store i32 1, ptr %118, align 4
  %119 = load i32, ptr %12, align 4
  %120 = icmp slt i32 %119, 2
  br i1 %120, label %124, label %121

121:                                              ; preds = %115
  %122 = load i32, ptr %12, align 4
  %123 = icmp sgt i32 %122, 14
  br i1 %123, label %124, label %130

124:                                              ; preds = %121, %115
  %125 = load ptr, ptr %6, align 8
  %126 = load i32, ptr %7, align 4
  %127 = load i32, ptr %8, align 4
  %128 = load i32, ptr %9, align 4
  %129 = call noundef i32 @_Z9DumpInputiRK4dealiii(i32 noundef -12, ptr noundef nonnull align 4 dereferenceable(96) %125, i32 noundef %126, i32 noundef %127, i32 noundef %128)
  store i32 -12, ptr %5, align 4
  br label %223

130:                                              ; preds = %121
  %131 = load ptr, ptr %6, align 8
  %132 = getelementptr inbounds nuw %struct.deal, ptr %131, i32 0, i32 2
  %133 = load i32, ptr %11, align 4
  %134 = sext i32 %133 to i64
  %135 = getelementptr inbounds [3 x i32], ptr %132, i64 0, i64 %134
  %136 = load i32, ptr %135, align 4
  %137 = icmp slt i32 %136, 0
  br i1 %137, label %146, label %138

138:                                              ; preds = %130
  %139 = load ptr, ptr %6, align 8
  %140 = getelementptr inbounds nuw %struct.deal, ptr %139, i32 0, i32 2
  %141 = load i32, ptr %11, align 4
  %142 = sext i32 %141 to i64
  %143 = getelementptr inbounds [3 x i32], ptr %140, i64 0, i64 %142
  %144 = load i32, ptr %143, align 4
  %145 = icmp sgt i32 %144, 3
  br i1 %145, label %146, label %152

146:                                              ; preds = %138, %130
  %147 = load ptr, ptr %6, align 8
  %148 = load i32, ptr %7, align 4
  %149 = load i32, ptr %8, align 4
  %150 = load i32, ptr %9, align 4
  %151 = call noundef i32 @_Z9DumpInputiRK4dealiii(i32 noundef -12, ptr noundef nonnull align 4 dereferenceable(96) %147, i32 noundef %148, i32 noundef %149, i32 noundef %150)
  store i32 -12, ptr %5, align 4
  br label %223

152:                                              ; preds = %138
  br label %153

153:                                              ; preds = %152, %114
  %154 = load i32, ptr %11, align 4
  %155 = add nsw i32 %154, 1
  store i32 %155, ptr %11, align 4
  br label %102, !llvm.loop !18

156:                                              ; preds = %102
  %157 = getelementptr inbounds [3 x i32], ptr %10, i64 0, i64 2
  %158 = load i32, ptr %157, align 4
  %159 = icmp ne i32 %158, 0
  br i1 %159, label %160, label %168

160:                                              ; preds = %156
  %161 = getelementptr inbounds [3 x i32], ptr %10, i64 0, i64 1
  %162 = load i32, ptr %161, align 4
  %163 = icmp ne i32 %162, 0
  br i1 %163, label %164, label %176

164:                                              ; preds = %160
  %165 = getelementptr inbounds [3 x i32], ptr %10, i64 0, i64 0
  %166 = load i32, ptr %165, align 4
  %167 = icmp ne i32 %166, 0
  br i1 %167, label %168, label %176

168:                                              ; preds = %164, %156
  %169 = getelementptr inbounds [3 x i32], ptr %10, i64 0, i64 1
  %170 = load i32, ptr %169, align 4
  %171 = icmp ne i32 %170, 0
  br i1 %171, label %172, label %182

172:                                              ; preds = %168
  %173 = getelementptr inbounds [3 x i32], ptr %10, i64 0, i64 0
  %174 = load i32, ptr %173, align 4
  %175 = icmp ne i32 %174, 0
  br i1 %175, label %182, label %176

176:                                              ; preds = %172, %164, %160
  %177 = load ptr, ptr %6, align 8
  %178 = load i32, ptr %7, align 4
  %179 = load i32, ptr %8, align 4
  %180 = load i32, ptr %9, align 4
  %181 = call noundef i32 @_Z9DumpInputiRK4dealiii(i32 noundef -12, ptr noundef nonnull align 4 dereferenceable(96) %177, i32 noundef %178, i32 noundef %179, i32 noundef %180)
  store i32 -12, ptr %5, align 4
  br label %223

182:                                              ; preds = %172, %168
  store i32 0, ptr %13, align 4
  br label %183

183:                                              ; preds = %219, %182
  %184 = load i32, ptr %13, align 4
  %185 = icmp slt i32 %184, 4
  br i1 %185, label %186, label %222

186:                                              ; preds = %183
  store i32 0, ptr %14, align 4
  br label %187

187:                                              ; preds = %215, %186
  %188 = load i32, ptr %14, align 4
  %189 = icmp slt i32 %188, 4
  br i1 %189, label %190, label %218

190:                                              ; preds = %187
  %191 = load ptr, ptr %6, align 8
  %192 = getelementptr inbounds nuw %struct.deal, ptr %191, i32 0, i32 4
  %193 = load i32, ptr %13, align 4
  %194 = sext i32 %193 to i64
  %195 = getelementptr inbounds [4 x [4 x i32]], ptr %192, i64 0, i64 %194
  %196 = load i32, ptr %14, align 4
  %197 = sext i32 %196 to i64
  %198 = getelementptr inbounds [4 x i32], ptr %195, i64 0, i64 %197
  %199 = load i32, ptr %198, align 4
  store i32 %199, ptr %15, align 4
  %200 = load i32, ptr %15, align 4
  %201 = icmp ne i32 %200, 0
  br i1 %201, label %202, label %214

202:                                              ; preds = %190
  %203 = load i32, ptr %15, align 4
  %204 = icmp ult i32 %203, 4
  br i1 %204, label %208, label %205

205:                                              ; preds = %202
  %206 = load i32, ptr %15, align 4
  %207 = icmp uge i32 %206, 32768
  br i1 %207, label %208, label %214

208:                                              ; preds = %205, %202
  %209 = load ptr, ptr %6, align 8
  %210 = load i32, ptr %7, align 4
  %211 = load i32, ptr %8, align 4
  %212 = load i32, ptr %9, align 4
  %213 = call noundef i32 @_Z9DumpInputiRK4dealiii(i32 noundef -12, ptr noundef nonnull align 4 dereferenceable(96) %209, i32 noundef %210, i32 noundef %211, i32 noundef %212)
  store i32 -12, ptr %5, align 4
  br label %223

214:                                              ; preds = %205, %190
  br label %215

215:                                              ; preds = %214
  %216 = load i32, ptr %14, align 4
  %217 = add nsw i32 %216, 1
  store i32 %217, ptr %14, align 4
  br label %187, !llvm.loop !19

218:                                              ; preds = %187
  br label %219

219:                                              ; preds = %218
  %220 = load i32, ptr %13, align 4
  %221 = add nsw i32 %220, 1
  store i32 %221, ptr %13, align 4
  br label %183, !llvm.loop !20

222:                                              ; preds = %183
  store i32 1, ptr %5, align 4
  br label %223

223:                                              ; preds = %222, %208, %176, %146, %124, %95, %79, %63, %54, %45, %36, %27, %18
  %224 = load i32, ptr %5, align 4
  ret i32 %224
}