; Function Attrs: mustprogress uwtable
define noundef range(i32 -19, 2) i32 @_Z16BoardRangeChecksRK4dealiii(ptr noundef nonnull align 4 dereferenceable(96) %0, i32 noundef %1, i32 noundef %2, i32 noundef %3) local_unnamed_addr #3 {
  %5 = alloca [3 x i32], align 4
  %6 = icmp slt i32 %1, -1
  br i1 %6, label %.loopexit.sink.split, label %7

7:                                                ; preds = %4
  %8 = icmp sgt i32 %1, 13
  br i1 %8, label %.loopexit.sink.split, label %9

9:                                                ; preds = %7
  %10 = icmp slt i32 %2, 1
  br i1 %10, label %.loopexit.sink.split, label %11

11:                                               ; preds = %9
  %12 = icmp samesign ugt i32 %2, 3
  br i1 %12, label %.loopexit.sink.split, label %13

13:                                               ; preds = %11
  %14 = icmp slt i32 %3, 0
  br i1 %14, label %.loopexit.sink.split, label %15

15:                                               ; preds = %13
  %16 = icmp samesign ugt i32 %3, 2
  br i1 %16, label %.loopexit.sink.split, label %17

17:                                               ; preds = %15
  %18 = load i32, ptr %0, align 4
  %or.cond103 = icmp ugt i32 %18, 4
  br i1 %or.cond103, label %.loopexit.sink.split, label %19

19:                                               ; preds = %17
  %20 = getelementptr inbounds nuw i8, ptr %0, i64 4
  %21 = load i32, ptr %20, align 4
  %or.cond104 = icmp ugt i32 %21, 3
  br i1 %or.cond104, label %.loopexit.sink.split, label %22

22:                                               ; preds = %19
  call void @llvm.memset.p0.i64(ptr noundef nonnull align 4 dereferenceable(12) %5, i8 0, i64 12, i1 false)
  %23 = getelementptr inbounds nuw i8, ptr %0, i64 20
  %24 = getelementptr inbounds nuw i8, ptr %0, i64 8
  br label %25

25:                                               ; preds = %22, %35
  %indvars.iv = phi i64 [ 0, %22 ], [ %indvars.iv.next, %35 ]
  %26 = getelementptr inbounds nuw [3 x i32], ptr %23, i64 0, i64 %indvars.iv
  %27 = load i32, ptr %26, align 4
  %28 = icmp eq i32 %27, 0
  br i1 %28, label %35, label %29

29:                                               ; preds = %25
  %30 = getelementptr inbounds nuw [3 x i32], ptr %5, i64 0, i64 %indvars.iv
  store i32 1, ptr %30, align 4
  %31 = add i32 %27, -15
  %or.cond = icmp ult i32 %31, -13
  br i1 %or.cond, label %.loopexit.sink.split, label %32

32:                                               ; preds = %29
  %33 = getelementptr inbounds nuw [3 x i32], ptr %24, i64 0, i64 %indvars.iv
  %34 = load i32, ptr %33, align 4
  %or.cond105 = icmp ugt i32 %34, 3
  br i1 %or.cond105, label %.loopexit.sink.split, label %35

35:                                               ; preds = %32, %25
  %indvars.iv.next = add nuw nsw i64 %indvars.iv, 1
  %exitcond.not = icmp eq i64 %indvars.iv.next, 3
  br i1 %exitcond.not, label %36, label %25, !llvm.loop !18

36:                                               ; preds = %35
  %37 = getelementptr inbounds nuw i8, ptr %5, i64 8
  %38 = load i32, ptr %37, align 4
  %.not = icmp eq i32 %38, 0
  %.phi.trans.insert = getelementptr inbounds nuw i8, ptr %5, i64 4
  %.pre = load i32, ptr %.phi.trans.insert, align 4
  br i1 %.not, label %43, label %39

39:                                               ; preds = %36
  %40 = icmp ne i32 %.pre, 0
  %41 = load i32, ptr %5, align 4
  %42 = icmp ne i32 %41, 0
  %or.cond4 = select i1 %40, i1 %42, i1 false
  br i1 %or.cond4, label %.preheader107, label %.loopexit.sink.split

43:                                               ; preds = %36
  %.pre120 = load i32, ptr %5, align 4
  %44 = icmp eq i32 %.pre, 0
  %45 = icmp ne i32 %.pre120, 0
  %46 = select i1 %44, i1 true, i1 %45
  br i1 %46, label %.preheader107, label %.loopexit.sink.split

.preheader107:                                    ; preds = %39, %43
  %47 = getelementptr inbounds nuw i8, ptr %0, i64 32
  br label %.preheader

.preheader:                                       ; preds = %.preheader107, %53
  %indvars.iv116 = phi i64 [ 0, %.preheader107 ], [ %indvars.iv.next117, %53 ]
  br label %49

48:                                               ; preds = %49
  %indvars.iv.next113 = add nuw nsw i64 %indvars.iv112, 1
  %exitcond115.not = icmp eq i64 %indvars.iv.next113, 4
  br i1 %exitcond115.not, label %53, label %49, !llvm.loop !19

49:                                               ; preds = %.preheader, %48
  %indvars.iv112 = phi i64 [ 0, %.preheader ], [ %indvars.iv.next113, %48 ]
  %50 = getelementptr inbounds nuw [4 x [4 x i32]], ptr %47, i64 0, i64 %indvars.iv116, i64 %indvars.iv112
  %51 = load i32, ptr %50, align 4
  %.not102 = icmp ne i32 %51, 0
  %52 = add i32 %51, -32768
  %or.cond9 = icmp ult i32 %52, -32764
  %or.cond106 = and i1 %.not102, %or.cond9
  br i1 %or.cond106, label %.loopexit.sink.split, label %48

53:                                               ; preds = %48
  %indvars.iv.next117 = add nuw nsw i64 %indvars.iv116, 1
  %exitcond119.not = icmp eq i64 %indvars.iv.next117, 4
  br i1 %exitcond119.not, label %.loopexit, label %.preheader, !llvm.loop !20

.loopexit.sink.split:                             ; preds = %32, %29, %49, %39, %43, %19, %17, %15, %13, %11, %9, %7, %4
  %.sink = phi i32 [ -5, %4 ], [ -7, %7 ], [ -8, %9 ], [ -9, %11 ], [ -16, %13 ], [ -17, %15 ], [ -18, %17 ], [ -19, %19 ], [ -12, %43 ], [ -12, %39 ], [ -12, %49 ], [ -12, %29 ], [ -12, %32 ]
  %54 = tail call noundef i32 @_Z9DumpInputiRK4dealiii(i32 noundef %.sink, ptr noundef nonnull align 4 dereferenceable(96) %0, i32 noundef %1, i32 noundef %2, i32 noundef %3)
  br label %.loopexit

.loopexit:                                        ; preds = %53, %.loopexit.sink.split
  %.0 = phi i32 [ %.sink, %.loopexit.sink.split ], [ 1, %53 ]
  ret i32 %.0
}